; Function Attrs: mustprogress uwtable
define noundef ptr @_ZN7rocksdb15BlockBasedTable17InitBlockIteratorINS_13DataBlockIterEEEPT_PKNS0_3RepEPNS_5BlockENS_9BlockTypeES4_b(ptr nocapture noundef readonly %rep, ptr noundef %block, i8 noundef zeroext %block_type, ptr noundef %input_iter, i1 noundef zeroext %block_contents_pinned) local_unnamed_addr #3 align 2 {
entry:
  %internal_comparator = getelementptr inbounds i8, ptr %rep, i64 272
  %0 = load ptr, ptr %internal_comparator, align 8
  %user_comparator_.i = getelementptr inbounds i8, ptr %0, i64 8
  %1 = load ptr, ptr %user_comparator_.i, align 8
  switch i8 %block_type, label %cond.false.i [
    i8 4, label %_ZNK7rocksdb15BlockBasedTable3Rep16get_global_seqnoENS_9BlockTypeE.exit
    i8 2, label %_ZNK7rocksdb15BlockBasedTable3Rep16get_global_seqnoENS_9BlockTypeE.exit
  ]

cond.false.i:                                     ; preds = %entry
  %global_seqno.i = getelementptr inbounds i8, ptr %rep, i64 600
  %2 = load i64, ptr %global_seqno.i, align 8
  br label %_ZNK7rocksdb15BlockBasedTable3Rep16get_global_seqnoENS_9BlockTypeE.exit

_ZNK7rocksdb15BlockBasedTable3Rep16get_global_seqnoENS_9BlockTypeE.exit: ; preds = %entry, %entry, %cond.false.i
  %cond.i = phi i64 [ %2, %cond.false.i ], [ -1, %entry ], [ -1, %entry ]
  %3 = load ptr, ptr %rep, align 8
  %stats = getelementptr inbounds i8, ptr %3, i64 536
  %4 = load ptr, ptr %stats, align 8
  %user_defined_timestamps_persisted = getelementptr inbounds i8, ptr %rep, i64 662
  %5 = load i8, ptr %user_defined_timestamps_persisted, align 2
  %6 = and i8 %5, 1
  %tobool2 = icmp ne i8 %6, 0
  %call3 = tail call noundef ptr @_ZN7rocksdb5Block15NewDataIteratorEPKNS_10ComparatorEmPNS_13DataBlockIterEPNS_10StatisticsEbb(ptr noundef nonnull align 8 dereferenceable(84) %block, ptr noundef %1, i64 noundef %cond.i, ptr noundef %input_iter, ptr noundef %4, i1 noundef zeroext %block_contents_pinned, i1 noundef zeroext %tobool2)
  ret ptr %call3
}